; Function Attrs: mustprogress uwtable
define internal fastcc void @_ZL15DumpToJsonArrayRKSt3setINSt7__cxx1112basic_stringIcSt11char_traitsIcESaIcEEESt4lessIS5_ESaIS5_EE(ptr dead_on_unwind noalias nonnull writable align 8 %0, ptr noundef nonnull readonly align 8 dereferenceable(48) %1) unnamed_addr #3 personality ptr @__gxx_personality_v0 {
  %3 = alloca %"class.Json::Value", align 8
  tail call void @_ZN4Json5ValueC1ENS_9ValueTypeE(ptr noundef nonnull align 8 dereferenceable(40) %0, i32 noundef 6)
  %4 = getelementptr inbounds i8, ptr %1, i64 24
  %5 = load ptr, ptr %4, align 8
  %6 = getelementptr inbounds i8, ptr %1, i64 8
  %.not11 = icmp eq ptr %5, %6
  br i1 %.not11, label %._crit_edge, label %.lr.ph

.lr.ph:                                           ; preds = %2, %10
  %.sroa.08.012 = phi ptr [ %11, %10 ], [ %5, %2 ]
  %7 = getelementptr inbounds i8, ptr %.sroa.08.012, i64 32
  invoke void @_ZN4Json5ValueC1ERKNSt7__cxx1112basic_stringIcSt11char_traitsIcESaIcEEE(ptr noundef nonnull align 8 dereferenceable(40) %3, ptr noundef nonnull align 8 dereferenceable(32) %7)
          to label %8 unwind label %12

8:                                                ; preds = %.lr.ph
  %9 = invoke noundef nonnull align 8 dereferenceable(40) ptr @_ZN4Json5Value6appendEOS0_(ptr noundef nonnull align 8 dereferenceable(40) %0, ptr noundef nonnull align 8 dereferenceable(40) %3)
          to label %10 unwind label %14

10:                                               ; preds = %8
  call void @_ZN4Json5ValueD1Ev(ptr noundef nonnull align 8 dereferenceable(40) %3) #25
  %11 = call noundef ptr @_ZSt18_Rb_tree_incrementPKSt18_Rb_tree_node_base(ptr noundef %.sroa.08.012) #28
  %.not = icmp eq ptr %11, %6
  br i1 %.not, label %._crit_edge, label %.lr.ph

12:                                               ; preds = %.lr.ph
  %13 = landingpad { ptr, i32 }
          cleanup
  br label %16

14:                                               ; preds = %8
  %15 = landingpad { ptr, i32 }
          cleanup
  call void @_ZN4Json5ValueD1Ev(ptr noundef nonnull align 8 dereferenceable(40) %3) #25
  br label %16

._crit_edge:                                      ; preds = %10, %2
  ret void

16:                                               ; preds = %14, %12
  %.pn = phi { ptr, i32 } [ %15, %14 ], [ %13, %12 ]
  call void @_ZN4Json5ValueD1Ev(ptr noundef nonnull align 8 dereferenceable(40) %0) #25
  resume { ptr, i32 } %.pn
}